target datalayout = "e-m:e-p270:32:32-p271:32:32-p272:64:64-i64:64-i128:128-f80:128-n8:16:32:64-S128"
target triple = "x86_64-pc-linux-gnu"

@hf_nan_availability_intervals_bitmap = internal global i32 0, align 4
@hf_nan_map_ctrl_field = internal global i32 0, align 4
@ett_map_control = internal global i32 0, align 4
@map_control_fields = internal constant [4 x ptr] [ptr @hf_nan_map_ctrl_map_id, ptr @hf_nan_map_ctrl_availability_interval_duration, ptr @hf_nan_map_ctrl_repeat, ptr null], align 16

; Function Attrs: null_pointer_is_valid sspstrong uwtable
define internal void @dissect_attr_further_service_discovery(ptr noundef %0, ptr noundef %1, i32 noundef %2, i16 noundef zeroext %3) #0 {
  %5 = alloca ptr, align 8
  %6 = alloca ptr, align 8
  %7 = alloca i32, align 4
  %8 = alloca i16, align 2
  %9 = alloca i32, align 4
  %10 = alloca i32, align 4
  store ptr %0, ptr %5, align 8
  store ptr %1, ptr %6, align 8
  store i32 %2, ptr %7, align 4
  store i16 %3, ptr %8, align 2
  call void @llvm.lifetime.start.p0(i64 4, ptr %9) #5
  %11 = load i32, ptr %7, align 4
  %12 = add i32 %11, 3
  store i32 %12, ptr %9, align 4
  %13 = load ptr, ptr %5, align 8
  %14 = load ptr, ptr %6, align 8
  %15 = load i32, ptr %9, align 4
  %16 = load i32, ptr @hf_nan_map_ctrl_field, align 4
  %17 = load i32, ptr @ett_map_control, align 4
  %18 = call ptr @proto_tree_add_bitmask(ptr noundef %13, ptr noundef %14, i32 noundef %15, i32 noundef %16, i32 noundef %17, ptr noundef @map_control_fields, i32 noundef -2147483648)
  %19 = load i32, ptr %9, align 4
  %20 = add i32 %19, 1
  store i32 %20, ptr %9, align 4
  call void @llvm.lifetime.start.p0(i64 4, ptr %10) #5
  %21 = load i16, ptr %8, align 2
  %22 = zext i16 %21 to i32
  %23 = sub i32 %22, 1
  store i32 %23, ptr %10, align 4
  %24 = load ptr, ptr %5, align 8
  %25 = load i32, ptr @hf_nan_availability_intervals_bitmap, align 4
  %26 = load ptr, ptr %6, align 8
  %27 = load i32, ptr %9, align 4
  %28 = load i32, ptr %10, align 4
  %29 = call ptr @proto_tree_add_item(ptr noundef %24, i32 noundef %25, ptr noundef %26, i32 noundef %27, i32 noundef %28, i32 noundef 0)
  call void @llvm.lifetime.end.p0(i64 4, ptr %10) #5
  call void @llvm.lifetime.end.p0(i64 4, ptr %9) #5
  ret void
}