; Function Attrs: null_pointer_is_valid sspstrong uwtable
define internal fastcc void @dissect_attr_further_service_discovery(ptr noundef %0, ptr noundef %1, i32 noundef %2, i16 noundef zeroext %3) unnamed_addr #0 {
  %5 = add i32 %2, 3
  %6 = load i32, ptr @hf_nan_map_ctrl_field, align 4
  %7 = load i32, ptr @ett_map_control, align 4
  %8 = tail call ptr @proto_tree_add_bitmask(ptr noundef %0, ptr noundef %1, i32 noundef %5, i32 noundef %6, i32 noundef %7, ptr noundef nonnull @map_control_fields, i32 noundef -2147483648)
  %9 = add i32 %2, 4
  %10 = zext i16 %3 to i32
  %11 = add nsw i32 %10, -1
  %12 = load i32, ptr @hf_nan_availability_intervals_bitmap, align 4
  %13 = tail call ptr @proto_tree_add_item(ptr noundef %0, i32 noundef %12, ptr noundef %1, i32 noundef %9, i32 noundef %11, i32 noundef 0)
  ret void
}